target datalayout = "e-m:e-p270:32:32-p271:32:32-p272:64:64-i64:64-i128:128-f80:128-n8:16:32:64-S128"
target triple = "x86_64-pc-linux-gnu"

%class.DelayedToolButtonPopUpStyle = type <{ %class.QProxyStyle, i32, [4 x i8] }>
%class.QProxyStyle = type { %class.QCommonStyle }
%class.QCommonStyle = type { %class.QStyle }
%class.QStyle = type { %class.QObject }
%class.QObject = type { ptr, %class.QScopedPointer }
%class.QScopedPointer = type { ptr }

; Function Attrs: mustprogress uwtable
define noundef i32 @_ZNK27DelayedToolButtonPopUpStyle9styleHintEN6QStyle9StyleHintEPK12QStyleOptionPK7QWidgetP16QStyleHintReturn(ptr noundef nonnull align 8 dereferenceable(20) %0, i32 noundef %1, ptr noundef %2, ptr noundef %3, ptr noundef %4) unnamed_addr #2 align 2 {
  %6 = alloca i32, align 4
  %7 = alloca ptr, align 8
  %8 = alloca i32, align 4
  %9 = alloca ptr, align 8
  %10 = alloca ptr, align 8
  %11 = alloca ptr, align 8
  store ptr %0, ptr %7, align 8
  store i32 %1, ptr %8, align 4
  store ptr %2, ptr %9, align 8
  store ptr %3, ptr %10, align 8
  store ptr %4, ptr %11, align 8
  %12 = load ptr, ptr %7, align 8
  %13 = load i32, ptr %8, align 4
  %14 = icmp eq i32 %13, 52
  br i1 %14, label %15, label %18

15:                                               ; preds = %5
  %16 = getelementptr inbounds %class.DelayedToolButtonPopUpStyle, ptr %12, i32 0, i32 1
  %17 = load i32, ptr %16, align 8
  store i32 %17, ptr %6, align 4
  br label %24

18:                                               ; preds = %5
  %19 = load i32, ptr %8, align 4
  %20 = load ptr, ptr %9, align 8
  %21 = load ptr, ptr %10, align 8
  %22 = load ptr, ptr %11, align 8
  %23 = call noundef i32 @_ZNK11QProxyStyle9styleHintEN6QStyle9StyleHintEPK12QStyleOptionPK7QWidgetP16QStyleHintReturn(ptr noundef nonnull align 8 dereferenceable(16) %12, i32 noundef %19, ptr noundef %20, ptr noundef %21, ptr noundef %22)
  store i32 %23, ptr %6, align 4
  br label %24

24:                                               ; preds = %18, %15
  %25 = load i32, ptr %6, align 4
  ret i32 %25
}