; Function Attrs: mustprogress uwtable
define noundef i32 @_ZNK27DelayedToolButtonPopUpStyle9styleHintEN6QStyle9StyleHintEPK12QStyleOptionPK7QWidgetP16QStyleHintReturn(ptr noundef nonnull align 8 dereferenceable(20) %0, i32 noundef %1, ptr noundef %2, ptr noundef %3, ptr noundef %4) unnamed_addr #2 align 2 {
  %6 = icmp eq i32 %1, 52
  br i1 %6, label %7, label %10

7:                                                ; preds = %5
  %8 = getelementptr inbounds i8, ptr %0, i64 16
  %9 = load i32, ptr %8, align 8
  br label %12

10:                                               ; preds = %5
  %11 = tail call noundef i32 @_ZNK11QProxyStyle9styleHintEN6QStyle9StyleHintEPK12QStyleOptionPK7QWidgetP16QStyleHintReturn(ptr noundef nonnull align 8 dereferenceable(16) %0, i32 noundef %1, ptr noundef %2, ptr noundef %3, ptr noundef %4)
  br label %12

12:                                               ; preds = %10, %7
  %.0 = phi i32 [ %9, %7 ], [ %11, %10 ]
  ret i32 %.0
}